target datalayout = "e-m:e-p270:32:32-p271:32:32-p272:64:64-i64:64-i128:128-f80:128-n8:16:32:64-S128"
target triple = "x86_64-pc-linux-gnu"

%struct.aeEventLoop = type { i32, i32, i64, i32, ptr, ptr, ptr, i32, ptr, ptr, ptr, i32, [2 x ptr] }
%struct.aeApiState = type { i32, ptr }

; Function Attrs: nounwind uwtable
define internal i32 @aeApiResize(ptr noundef %0, i32 noundef %1) #0 {
  %3 = alloca ptr, align 8
  %4 = alloca i32, align 4
  %5 = alloca ptr, align 8
  store ptr %0, ptr %3, align 8, !tbaa !9
  store i32 %1, ptr %4, align 4, !tbaa !5
  call void @llvm.lifetime.start.p0(i64 8, ptr %5) #10
  %6 = load ptr, ptr %3, align 8, !tbaa !9
  %7 = getelementptr inbounds nuw %struct.aeEventLoop, ptr %6, i32 0, i32 8
  %8 = load ptr, ptr %7, align 8, !tbaa !38
  store ptr %8, ptr %5, align 8, !tbaa !32
  %9 = load ptr, ptr %5, align 8, !tbaa !32
  %10 = getelementptr inbounds nuw %struct.aeApiState, ptr %9, i32 0, i32 1
  %11 = load ptr, ptr %10, align 8, !tbaa !34
  %12 = load i32, ptr %4, align 4, !tbaa !5
  %13 = sext i32 %12 to i64
  %14 = mul i64 12, %13
  %15 = call ptr @zrealloc(ptr noundef %11, i64 noundef %14) #12
  %16 = load ptr, ptr %5, align 8, !tbaa !32
  %17 = getelementptr inbounds nuw %struct.aeApiState, ptr %16, i32 0, i32 1
  store ptr %15, ptr %17, align 8, !tbaa !34
  call void @llvm.lifetime.end.p0(i64 8, ptr %5) #10
  ret i32 0
}

; Function Attrs: nounwind uwtable
define dso_local i32 @aeResizeSetSize(ptr noundef %0, i32 noundef %1) #0 {
  %3 = alloca i32, align 4
  %4 = alloca ptr, align 8
  %5 = alloca i32, align 4
  store ptr %0, ptr %4, align 8, !tbaa !9
  store i32 %1, ptr %5, align 4, !tbaa !5
  %6 = load i32, ptr %5, align 4, !tbaa !5
  %7 = load ptr, ptr %4, align 8, !tbaa !9
  %8 = getelementptr inbounds nuw %struct.aeEventLoop, ptr %7, i32 0, i32 1
  %9 = load i32, ptr %8, align 4, !tbaa !20
  %10 = icmp eq i32 %6, %9
  br i1 %10, label %11, label %12

11:                                               ; preds = %2
  store i32 0, ptr %3, align 4
  br label %57

12:                                               ; preds = %2
  %13 = load ptr, ptr %4, align 8, !tbaa !9
  %14 = getelementptr inbounds nuw %struct.aeEventLoop, ptr %13, i32 0, i32 0
  %15 = load i32, ptr %14, align 8, !tbaa !24
  %16 = load i32, ptr %5, align 4, !tbaa !5
  %17 = icmp sge i32 %15, %16
  br i1 %17, label %18, label %19

18:                                               ; preds = %12
  store i32 -1, ptr %3, align 4
  br label %57

19:                                               ; preds = %12
  %20 = load ptr, ptr %4, align 8, !tbaa !9
  %21 = load i32, ptr %5, align 4, !tbaa !5
  %22 = call i32 @aeApiResize(ptr noundef %20, i32 noundef %21)
  %23 = icmp eq i32 %22, -1
  br i1 %23, label %24, label %25

24:                                               ; preds = %19
  store i32 -1, ptr %3, align 4
  br label %57

25:                                               ; preds = %19
  %26 = load i32, ptr %5, align 4, !tbaa !5
  %27 = load ptr, ptr %4, align 8, !tbaa !9
  %28 = getelementptr inbounds nuw %struct.aeEventLoop, ptr %27, i32 0, i32 1
  store i32 %26, ptr %28, align 4, !tbaa !20
  %29 = load i32, ptr %5, align 4, !tbaa !5
  %30 = load ptr, ptr %4, align 8, !tbaa !9
  %31 = getelementptr inbounds nuw %struct.aeEventLoop, ptr %30, i32 0, i32 3
  %32 = load i32, ptr %31, align 8, !tbaa !12
  %33 = icmp slt i32 %29, %32
  br i1 %33, label %34, label %56

34:                                               ; preds = %25
  %35 = load ptr, ptr %4, align 8, !tbaa !9
  %36 = getelementptr inbounds nuw %struct.aeEventLoop, ptr %35, i32 0, i32 4
  %37 = load ptr, ptr %36, align 8, !tbaa !18
  %38 = load i32, ptr %5, align 4, !tbaa !5
  %39 = sext i32 %38 to i64
  %40 = mul i64 32, %39
  %41 = call ptr @zrealloc(ptr noundef %37, i64 noundef %40) #12
  %42 = load ptr, ptr %4, align 8, !tbaa !9
  %43 = getelementptr inbounds nuw %struct.aeEventLoop, ptr %42, i32 0, i32 4
  store ptr %41, ptr %43, align 8, !tbaa !18
  %44 = load ptr, ptr %4, align 8, !tbaa !9
  %45 = getelementptr inbounds nuw %struct.aeEventLoop, ptr %44, i32 0, i32 5
  %46 = load ptr, ptr %45, align 8, !tbaa !19
  %47 = load i32, ptr %5, align 4, !tbaa !5
  %48 = sext i32 %47 to i64
  %49 = mul i64 8, %48
  %50 = call ptr @zrealloc(ptr noundef %46, i64 noundef %49) #12
  %51 = load ptr, ptr %4, align 8, !tbaa !9
  %52 = getelementptr inbounds nuw %struct.aeEventLoop, ptr %51, i32 0, i32 5
  store ptr %50, ptr %52, align 8, !tbaa !19
  %53 = load i32, ptr %5, align 4, !tbaa !5
  %54 = load ptr, ptr %4, align 8, !tbaa !9
  %55 = getelementptr inbounds nuw %struct.aeEventLoop, ptr %54, i32 0, i32 3
  store i32 %53, ptr %55, align 8, !tbaa !12
  br label %56

56:                                               ; preds = %34, %25
  store i32 0, ptr %3, align 4
  br label %57

57:                                               ; preds = %56, %24, %18, %11
  %58 = load i32, ptr %3, align 4
  ret i32 %58
}