; Function Attrs: nounwind uwtable
define dso_local range(i32 -1, 1) i32 @aeResizeSetSize(ptr noundef captures(none) %0, i32 noundef %1) local_unnamed_addr #0 {
  %3 = getelementptr inbounds nuw i8, ptr %0, i64 4
  %4 = load i32, ptr %3, align 4, !tbaa !17
  %5 = icmp eq i32 %1, %4
  br i1 %5, label %27, label %6

6:                                                ; preds = %2
  %7 = load i32, ptr %0, align 8, !tbaa !21
  %.not = icmp slt i32 %7, %1
  br i1 %.not, label %8, label %27

8:                                                ; preds = %6
  %9 = getelementptr i8, ptr %0, i64 56
  %.val = load ptr, ptr %9, align 8, !tbaa !26
  %10 = getelementptr inbounds nuw i8, ptr %.val, i64 8
  %11 = load ptr, ptr %10, align 8, !tbaa !22
  %12 = sext i32 %1 to i64
  %13 = mul nsw i64 %12, 12
  %14 = tail call ptr @zrealloc(ptr noundef %11, i64 noundef %13) #18
  store ptr %14, ptr %10, align 8, !tbaa !22
  store i32 %1, ptr %3, align 4, !tbaa !17
  %15 = getelementptr inbounds nuw i8, ptr %0, i64 16
  %16 = load i32, ptr %15, align 8, !tbaa !5
  %17 = icmp slt i32 %1, %16
  br i1 %17, label %18, label %27

18:                                               ; preds = %8
  %19 = getelementptr inbounds nuw i8, ptr %0, i64 24
  %20 = load ptr, ptr %19, align 8, !tbaa !15
  %21 = shl nsw i64 %12, 5
  %22 = tail call ptr @zrealloc(ptr noundef %20, i64 noundef %21) #18
  store ptr %22, ptr %19, align 8, !tbaa !15
  %23 = getelementptr inbounds nuw i8, ptr %0, i64 32
  %24 = load ptr, ptr %23, align 8, !tbaa !16
  %25 = shl nsw i64 %12, 3
  %26 = tail call ptr @zrealloc(ptr noundef %24, i64 noundef %25) #18
  store ptr %26, ptr %23, align 8, !tbaa !16
  store i32 %1, ptr %15, align 8, !tbaa !5
  br label %27

27:                                               ; preds = %8, %18, %6, %2
  %.0 = phi i32 [ 0, %2 ], [ -1, %6 ], [ 0, %18 ], [ 0, %8 ]
  ret i32 %.0
}